target datalayout = "e-m:e-p270:32:32-p271:32:32-p272:64:64-i64:64-i128:128-f80:128-n8:16:32:64-S128"
target triple = "x86_64-pc-linux-gnu"

; Function Attrs: mustprogress nounwind uwtable
define hidden noundef i32 @_Z12LUPDecomposePPdidPi(ptr noundef %0, i32 noundef %1, double noundef %2, ptr noundef %3) #0 {
  %5 = alloca i32, align 4
  %6 = alloca ptr, align 8
  %7 = alloca i32, align 4
  %8 = alloca double, align 8
  %9 = alloca ptr, align 8
  %10 = alloca i32, align 4
  %11 = alloca i32, align 4
  %12 = alloca i32, align 4
  %13 = alloca i32, align 4
  %14 = alloca double, align 8
  %15 = alloca ptr, align 8
  %16 = alloca double, align 8
  store ptr %0, ptr %6, align 8
  store i32 %1, ptr %7, align 4
  store double %2, ptr %8, align 8
  store ptr %3, ptr %9, align 8
  store i32 0, ptr %10, align 4
  br label %17

17:                                               ; preds = %27, %4
  %18 = load i32, ptr %10, align 4
  %19 = load i32, ptr %7, align 4
  %20 = icmp sle i32 %18, %19
  br i1 %20, label %21, label %30

21:                                               ; preds = %17
  %22 = load i32, ptr %10, align 4
  %23 = load ptr, ptr %9, align 8
  %24 = load i32, ptr %10, align 4
  %25 = sext i32 %24 to i64
  %26 = getelementptr inbounds i32, ptr %23, i64 %25
  store i32 %22, ptr %26, align 4
  br label %27

27:                                               ; preds = %21
  %28 = load i32, ptr %10, align 4
  %29 = add nsw i32 %28, 1
  store i32 %29, ptr %10, align 4
  br label %17, !llvm.loop !6

30:                                               ; preds = %17
  store i32 0, ptr %10, align 4
  br label %31

31:                                               ; preds = %187, %30
  %32 = load i32, ptr %10, align 4
  %33 = load i32, ptr %7, align 4
  %34 = icmp slt i32 %32, %33
  br i1 %34, label %35, label %190

35:                                               ; preds = %31
  store double 0.000000e+00, ptr %14, align 8
  %36 = load i32, ptr %10, align 4
  store i32 %36, ptr %13, align 4
  %37 = load i32, ptr %10, align 4
  store i32 %37, ptr %12, align 4
  br label %38

38:                                               ; preds = %59, %35
  %39 = load i32, ptr %12, align 4
  %40 = load i32, ptr %7, align 4
  %41 = icmp slt i32 %39, %40
  br i1 %41, label %42, label %62

42:                                               ; preds = %38
  %43 = load ptr, ptr %6, align 8
  %44 = load i32, ptr %12, align 4
  %45 = sext i32 %44 to i64
  %46 = getelementptr inbounds ptr, ptr %43, i64 %45
  %47 = load ptr, ptr %46, align 8
  %48 = load i32, ptr %10, align 4
  %49 = sext i32 %48 to i64
  %50 = getelementptr inbounds double, ptr %47, i64 %49
  %51 = load double, ptr %50, align 8
  %52 = call contract double @llvm.fabs.f64(double %51)
  store double %52, ptr %16, align 8
  %53 = load double, ptr %14, align 8
  %54 = fcmp contract ogt double %52, %53
  br i1 %54, label %55, label %58

55:                                               ; preds = %42
  %56 = load double, ptr %16, align 8
  store double %56, ptr %14, align 8
  %57 = load i32, ptr %12, align 4
  store i32 %57, ptr %13, align 4
  br label %58

58:                                               ; preds = %55, %42
  br label %59

59:                                               ; preds = %58
  %60 = load i32, ptr %12, align 4
  %61 = add nsw i32 %60, 1
  store i32 %61, ptr %12, align 4
  br label %38, !llvm.loop !8

62:                                               ; preds = %38
  %63 = load double, ptr %14, align 8
  %64 = load double, ptr %8, align 8
  %65 = fcmp contract olt double %63, %64
  br i1 %65, label %66, label %67

66:                                               ; preds = %62
  store i32 0, ptr %5, align 4
  br label %191

67:                                               ; preds = %62
  %68 = load i32, ptr %13, align 4
  %69 = load i32, ptr %10, align 4
  %70 = icmp ne i32 %68, %69
  br i1 %70, label %71, label %116

71:                                               ; preds = %67
  %72 = load ptr, ptr %9, align 8
  %73 = load i32, ptr %10, align 4
  %74 = sext i32 %73 to i64
  %75 = getelementptr inbounds i32, ptr %72, i64 %74
  %76 = load i32, ptr %75, align 4
  store i32 %76, ptr %11, align 4
  %77 = load ptr, ptr %9, align 8
  %78 = load i32, ptr %13, align 4
  %79 = sext i32 %78 to i64
  %80 = getelementptr inbounds i32, ptr %77, i64 %79
  %81 = load i32, ptr %80, align 4
  %82 = load ptr, ptr %9, align 8
  %83 = load i32, ptr %10, align 4
  %84 = sext i32 %83 to i64
  %85 = getelementptr inbounds i32, ptr %82, i64 %84
  store i32 %81, ptr %85, align 4
  %86 = load i32, ptr %11, align 4
  %87 = load ptr, ptr %9, align 8
  %88 = load i32, ptr %13, align 4
  %89 = sext i32 %88 to i64
  %90 = getelementptr inbounds i32, ptr %87, i64 %89
  store i32 %86, ptr %90, align 4
  %91 = load ptr, ptr %6, align 8
  %92 = load i32, ptr %10, align 4
  %93 = sext i32 %92 to i64
  %94 = getelementptr inbounds ptr, ptr %91, i64 %93
  %95 = load ptr, ptr %94, align 8
  store ptr %95, ptr %15, align 8
  %96 = load ptr, ptr %6, align 8
  %97 = load i32, ptr %13, align 4
  %98 = sext i32 %97 to i64
  %99 = getelementptr inbounds ptr, ptr %96, i64 %98
  %100 = load ptr, ptr %99, align 8
  %101 = load ptr, ptr %6, align 8
  %102 = load i32, ptr %10, align 4
  %103 = sext i32 %102 to i64
  %104 = getelementptr inbounds ptr, ptr %101, i64 %103
  store ptr %100, ptr %104, align 8
  %105 = load ptr, ptr %15, align 8
  %106 = load ptr, ptr %6, align 8
  %107 = load i32, ptr %13, align 4
  %108 = sext i32 %107 to i64
  %109 = getelementptr inbounds ptr, ptr %106, i64 %108
  store ptr %105, ptr %109, align 8
  %110 = load ptr, ptr %9, align 8
  %111 = load i32, ptr %7, align 4
  %112 = sext i32 %111 to i64
  %113 = getelementptr inbounds i32, ptr %110, i64 %112
  %114 = load i32, ptr %113, align 4
  %115 = add nsw i32 %114, 1
  store i32 %115, ptr %113, align 4
  br label %116

116:                                              ; preds = %71, %67
  %117 = load i32, ptr %10, align 4
  %118 = add nsw i32 %117, 1
  store i32 %118, ptr %11, align 4
  br label %119

119:                                              ; preds = %183, %116
  %120 = load i32, ptr %11, align 4
  %121 = load i32, ptr %7, align 4
  %122 = icmp slt i32 %120, %121
  br i1 %122, label %123, label %186

123:                                              ; preds = %119
  %124 = load ptr, ptr %6, align 8
  %125 = load i32, ptr %10, align 4
  %126 = sext i32 %125 to i64
  %127 = getelementptr inbounds ptr, ptr %124, i64 %126
  %128 = load ptr, ptr %127, align 8
  %129 = load i32, ptr %10, align 4
  %130 = sext i32 %129 to i64
  %131 = getelementptr inbounds double, ptr %128, i64 %130
  %132 = load double, ptr %131, align 8
  %133 = load ptr, ptr %6, align 8
  %134 = load i32, ptr %11, align 4
  %135 = sext i32 %134 to i64
  %136 = getelementptr inbounds ptr, ptr %133, i64 %135
  %137 = load ptr, ptr %136, align 8
  %138 = load i32, ptr %10, align 4
  %139 = sext i32 %138 to i64
  %140 = getelementptr inbounds double, ptr %137, i64 %139
  %141 = load double, ptr %140, align 8
  %142 = fdiv contract double %141, %132
  store double %142, ptr %140, align 8
  %143 = load i32, ptr %10, align 4
  %144 = add nsw i32 %143, 1
  store i32 %144, ptr %12, align 4
  br label %145

145:                                              ; preds = %179, %123
  %146 = load i32, ptr %12, align 4
  %147 = load i32, ptr %7, align 4
  %148 = icmp slt i32 %146, %147
  br i1 %148, label %149, label %182

149:                                              ; preds = %145
  %150 = load ptr, ptr %6, align 8
  %151 = load i32, ptr %11, align 4
  %152 = sext i32 %151 to i64
  %153 = getelementptr inbounds ptr, ptr %150, i64 %152
  %154 = load ptr, ptr %153, align 8
  %155 = load i32, ptr %10, align 4
  %156 = sext i32 %155 to i64
  %157 = getelementptr inbounds double, ptr %154, i64 %156
  %158 = load double, ptr %157, align 8
  %159 = load ptr, ptr %6, align 8
  %160 = load i32, ptr %10, align 4
  %161 = sext i32 %160 to i64
  %162 = getelementptr inbounds ptr, ptr %159, i64 %161
  %163 = load ptr, ptr %162, align 8
  %164 = load i32, ptr %12, align 4
  %165 = sext i32 %164 to i64
  %166 = getelementptr inbounds double, ptr %163, i64 %165
  %167 = load double, ptr %166, align 8
  %168 = fmul contract double %158, %167
  %169 = load ptr, ptr %6, align 8
  %170 = load i32, ptr %11, align 4
  %171 = sext i32 %170 to i64
  %172 = getelementptr inbounds ptr, ptr %169, i64 %171
  %173 = load ptr, ptr %172, align 8
  %174 = load i32, ptr %12, align 4
  %175 = sext i32 %174 to i64
  %176 = getelementptr inbounds double, ptr %173, i64 %175
  %177 = load double, ptr %176, align 8
  %178 = fsub contract double %177, %168
  store double %178, ptr %176, align 8
  br label %179

179:                                              ; preds = %149
  %180 = load i32, ptr %12, align 4
  %181 = add nsw i32 %180, 1
  store i32 %181, ptr %12, align 4
  br label %145, !llvm.loop !9

182:                                              ; preds = %145
  br label %183

183:                                              ; preds = %182
  %184 = load i32, ptr %11, align 4
  %185 = add nsw i32 %184, 1
  store i32 %185, ptr %11, align 4
  br label %119, !llvm.loop !10

186:                                              ; preds = %119
  br label %187

187:                                              ; preds = %186
  %188 = load i32, ptr %10, align 4
  %189 = add nsw i32 %188, 1
  store i32 %189, ptr %10, align 4
  br label %31, !llvm.loop !11

190:                                              ; preds = %31
  store i32 1, ptr %5, align 4
  br label %191

191:                                              ; preds = %190, %66
  %192 = load i32, ptr %5, align 4
  ret i32 %192
}