; Function Attrs: mustprogress nofree norecurse nosync nounwind memory(readwrite, inaccessiblemem: none) uwtable
define hidden noundef i32 @_Z12LUPDecomposePPdidPi(ptr nocapture noundef %0, i32 noundef %1, double noundef %2, ptr nocapture noundef %3) local_unnamed_addr #1 {
  %.not79 = icmp slt i32 %1, 0
  br i1 %.not79, label %._crit_edge, label %.lr.ph.preheader

.lr.ph.preheader:                                 ; preds = %4
  %5 = add nuw i32 %1, 1
  %wide.trip.count = zext i32 %5 to i64
  br label %.lr.ph

.preheader78:                                     ; preds = %.lr.ph
  %.not = icmp eq i32 %1, 0
  br i1 %.not, label %._crit_edge, label %.preheader.lr.ph

.preheader.lr.ph:                                 ; preds = %.preheader78
  %6 = zext nneg i32 %1 to i64
  %7 = getelementptr inbounds i32, ptr %3, i64 %6
  %8 = zext nneg i32 %1 to i64
  br label %.preheader

.lr.ph:                                           ; preds = %.lr.ph.preheader, %.lr.ph
  %indvars.iv = phi i64 [ 0, %.lr.ph.preheader ], [ %indvars.iv.next, %.lr.ph ]
  %9 = getelementptr inbounds i32, ptr %3, i64 %indvars.iv
  %10 = trunc i64 %indvars.iv to i32
  store i32 %10, ptr %9, align 4
  %indvars.iv.next = add nuw nsw i64 %indvars.iv, 1
  %exitcond.not = icmp eq i64 %indvars.iv.next, %wide.trip.count
  br i1 %exitcond.not, label %.preheader78, label %.lr.ph, !llvm.loop !6

.loopexit:                                        ; preds = %._crit_edge.us, %36
  %indvars.iv.next101 = add nuw nsw i64 %indvars.iv100, 1
  %exitcond114.not = icmp eq i64 %indvars.iv.next94, %6
  br i1 %exitcond114.not, label %._crit_edge, label %.preheader, !llvm.loop !8

.preheader:                                       ; preds = %.preheader.lr.ph, %.loopexit
  %indvars.iv100 = phi i64 [ 1, %.preheader.lr.ph ], [ %indvars.iv.next101, %.loopexit ]
  %indvars.iv93 = phi i64 [ 0, %.preheader.lr.ph ], [ %indvars.iv.next94, %.loopexit ]
  %11 = trunc i64 %indvars.iv93 to i32
  br label %12

12:                                               ; preds = %.preheader, %12
  %indvars.iv95 = phi i64 [ %indvars.iv93, %.preheader ], [ %indvars.iv.next96, %12 ]
  %.06883 = phi double [ 0.000000e+00, %.preheader ], [ %.169, %12 ]
  %.07082 = phi i32 [ %11, %.preheader ], [ %.171, %12 ]
  %13 = getelementptr inbounds ptr, ptr %0, i64 %indvars.iv95
  %14 = load ptr, ptr %13, align 8
  %15 = getelementptr inbounds double, ptr %14, i64 %indvars.iv93
  %16 = load double, ptr %15, align 8
  %17 = tail call contract double @llvm.fabs.f64(double %16)
  %18 = fcmp contract ogt double %17, %.06883
  %19 = trunc i64 %indvars.iv95 to i32
  %.171 = select i1 %18, i32 %19, i32 %.07082
  %.169 = select i1 %18, double %17, double %.06883
  %indvars.iv.next96 = add nuw nsw i64 %indvars.iv95, 1
  %exitcond99.not = icmp eq i64 %indvars.iv.next96, %6
  br i1 %exitcond99.not, label %20, label %12, !llvm.loop !9

20:                                               ; preds = %12
  %21 = fcmp contract olt double %.169, %2
  br i1 %21, label %._crit_edge, label %22

22:                                               ; preds = %20
  %23 = zext i32 %.171 to i64
  %.not77 = icmp eq i64 %indvars.iv93, %23
  br i1 %.not77, label %36, label %24

24:                                               ; preds = %22
  %25 = getelementptr inbounds i32, ptr %3, i64 %indvars.iv93
  %26 = load i32, ptr %25, align 4
  %27 = sext i32 %.171 to i64
  %28 = getelementptr inbounds i32, ptr %3, i64 %27
  %29 = load i32, ptr %28, align 4
  store i32 %29, ptr %25, align 4
  store i32 %26, ptr %28, align 4
  %30 = getelementptr inbounds ptr, ptr %0, i64 %indvars.iv93
  %31 = load ptr, ptr %30, align 8
  %32 = getelementptr inbounds ptr, ptr %0, i64 %27
  %33 = load ptr, ptr %32, align 8
  store ptr %33, ptr %30, align 8
  store ptr %31, ptr %32, align 8
  %34 = load i32, ptr %7, align 4
  %35 = add nsw i32 %34, 1
  store i32 %35, ptr %7, align 4
  br label %36

36:                                               ; preds = %24, %22
  %indvars.iv.next94 = add nuw nsw i64 %indvars.iv93, 1
  %37 = icmp ult i64 %indvars.iv.next94, %8
  br i1 %37, label %.lr.ph88, label %.loopexit

.lr.ph88:                                         ; preds = %36
  %38 = getelementptr inbounds ptr, ptr %0, i64 %indvars.iv93
  br label %.lr.ph85.us

.lr.ph85.us:                                      ; preds = %._crit_edge.us, %.lr.ph88
  %indvars.iv107 = phi i64 [ %indvars.iv.next108, %._crit_edge.us ], [ %indvars.iv100, %.lr.ph88 ]
  %39 = load ptr, ptr %38, align 8
  %40 = getelementptr inbounds double, ptr %39, i64 %indvars.iv93
  %41 = load double, ptr %40, align 8
  %42 = getelementptr inbounds ptr, ptr %0, i64 %indvars.iv107
  %43 = load ptr, ptr %42, align 8
  %44 = getelementptr inbounds double, ptr %43, i64 %indvars.iv93
  %45 = load double, ptr %44, align 8
  %46 = fdiv contract double %45, %41
  store double %46, ptr %44, align 8
  br label %47

47:                                               ; preds = %.lr.ph85.us, %47
  %indvars.iv102 = phi i64 [ %indvars.iv100, %.lr.ph85.us ], [ %indvars.iv.next103, %47 ]
  %48 = load ptr, ptr %42, align 8
  %49 = getelementptr inbounds double, ptr %48, i64 %indvars.iv93
  %50 = load double, ptr %49, align 8
  %51 = load ptr, ptr %38, align 8
  %52 = getelementptr inbounds double, ptr %51, i64 %indvars.iv102
  %53 = load double, ptr %52, align 8
  %54 = fmul contract double %50, %53
  %55 = getelementptr inbounds double, ptr %48, i64 %indvars.iv102
  %56 = load double, ptr %55, align 8
  %57 = fsub contract double %56, %54
  store double %57, ptr %55, align 8
  %indvars.iv.next103 = add nuw nsw i64 %indvars.iv102, 1
  %exitcond106.not = icmp eq i64 %indvars.iv.next103, %6
  br i1 %exitcond106.not, label %._crit_edge.us, label %47, !llvm.loop !10

._crit_edge.us:                                   ; preds = %47
  %indvars.iv.next108 = add nuw nsw i64 %indvars.iv107, 1
  %exitcond111.not = icmp eq i64 %indvars.iv.next108, %6
  br i1 %exitcond111.not, label %.loopexit, label %.lr.ph85.us, !llvm.loop !11

._crit_edge:                                      ; preds = %20, %.loopexit, %4, %.preheader78
  %.0 = phi i32 [ 1, %.preheader78 ], [ 1, %4 ], [ 1, %.loopexit ], [ 0, %20 ]
  ret i32 %.0
}